target datalayout = "e-m:e-p270:32:32-p271:32:32-p272:64:64-i64:64-i128:128-f80:128-n8:16:32:64-S128"
target triple = "x86_64-pc-linux-gnu"

%struct.slice_buffer_s = type { ptr, ptr, i32, i32, i32, i32, ptr }
%struct.SnowContext = type { ptr, ptr, %struct.RangeCoder, %struct.HpelDSPContext, %struct.VideoDSPContext, %struct.H264QpelContext, %struct.SnowDWTContext, ptr, ptr, [8 x ptr], ptr, [32 x i8], [4224 x i8], i32, i32, i32, i32, i32, i32, i32, i32, i32, i32, i32, [8 x ptr], [8 x ptr], ptr, ptr, ptr, ptr, ptr, i32, i32, i32, i32, i32, i32, i32, i32, i32, i32, i32, i32, i32, i32, i32, [4 x %struct.Plane], ptr, %struct.slice_buffer_s, ptr, ptr, ptr, i32, i32 }
%struct.RangeCoder = type { i32, i32, i32, i32, [256 x i8], [256 x i8], ptr, ptr, ptr, i32 }
%struct.HpelDSPContext = type { [4 x [4 x ptr]], [4 x [4 x ptr]], [4 x [4 x ptr]], [4 x ptr] }
%struct.VideoDSPContext = type { ptr, ptr }
%struct.H264QpelContext = type { [4 x [16 x ptr]], [4 x [16 x ptr]] }
%struct.SnowDWTContext = type { ptr, ptr, ptr }
%struct.Plane = type { i32, i32, [8 x [4 x %struct.SubBand]], i32, [4 x i8], i32, i32, i32, [4 x i8], i32 }
%struct.SubBand = type { i32, i32, i32, i32, i32, ptr, ptr, i32, i32, i32, ptr, ptr, [519 x [32 x i8]] }
%struct.AVCodecContext = type { ptr, i32, i32, ptr, i32, i32, ptr, ptr, ptr, i64, i32, i32, ptr, i32, %struct.AVRational, %struct.AVRational, %struct.AVRational, i32, i32, i32, i32, i32, %struct.AVRational, i32, i32, i32, i32, i32, i32, i32, i32, i32, i32, i32, ptr, ptr, i32, float, float, float, float, float, float, float, float, float, i32, i32, i32, i32, i32, i32, i32, i32, i32, i32, i32, i32, ptr, ptr, ptr, i32, i32, i32, i32, i32, i32, i32, i32, i32, i32, %struct.AVChannelLayout, i32, i32, i32, i32, i32, i32, i32, i32, ptr, i32, i32, i32, float, float, i32, i32, i32, i32, i32, ptr, i64, i64, float, float, i32, i32, ptr, ptr, i32, i32, i32, i32, i32, ptr, ptr, ptr, ptr, i32, i32, [8 x i64], i32, i32, i32, i32, i32, i32, i32, ptr, ptr, i32, i32, i32, i32, i32, i32, i32, i32, i32, i32, ptr, ptr, i32, i32, ptr, ptr, ptr, ptr, i32, i32, i64, i32, i32, i64, ptr, i64, ptr, i32, ptr, i32 }
%struct.AVRational = type { i32, i32 }
%struct.AVChannelLayout = type { i32, i32, %union.anon, ptr }
%union.anon = type { i64 }

@ff_snow_common_init.init_static_once = internal global i32 0, align 4

; Function Attrs: cold nounwind optsize uwtable
define i32 @ff_snow_common_init(ptr noundef %0) #4 {
  %2 = alloca i32, align 4
  %3 = alloca ptr, align 8
  %4 = alloca ptr, align 8
  %5 = alloca i32, align 4
  %6 = alloca i32, align 4
  %7 = alloca i32, align 4
  %8 = alloca i32, align 4
  store ptr %0, ptr %3, align 8, !tbaa !98
  call void @llvm.lifetime.start.p0(i64 8, ptr %4) #6
  %9 = load ptr, ptr %3, align 8, !tbaa !98
  %10 = getelementptr inbounds nuw %struct.AVCodecContext, ptr %9, i32 0, i32 6
  %11 = load ptr, ptr %10, align 8, !tbaa !99
  store ptr %11, ptr %4, align 8, !tbaa !27
  call void @llvm.lifetime.start.p0(i64 4, ptr %5) #6
  call void @llvm.lifetime.start.p0(i64 4, ptr %6) #6
  call void @llvm.lifetime.start.p0(i64 4, ptr %7) #6
  %12 = load ptr, ptr %3, align 8, !tbaa !98
  %13 = load ptr, ptr %4, align 8, !tbaa !27
  %14 = getelementptr inbounds nuw %struct.SnowContext, ptr %13, i32 0, i32 1
  store ptr %12, ptr %14, align 8, !tbaa !32
  %15 = load ptr, ptr %4, align 8, !tbaa !27
  %16 = getelementptr inbounds nuw %struct.SnowContext, ptr %15, i32 0, i32 22
  store i32 1, ptr %16, align 4, !tbaa !100
  %17 = load ptr, ptr %4, align 8, !tbaa !27
  %18 = getelementptr inbounds nuw %struct.SnowContext, ptr %17, i32 0, i32 19
  store i32 1, ptr %18, align 8, !tbaa !101
  %19 = load ptr, ptr %4, align 8, !tbaa !27
  %20 = getelementptr inbounds nuw %struct.SnowContext, ptr %19, i32 0, i32 4
  call void @ff_videodsp_init(ptr noundef %20, i32 noundef 8)
  %21 = load ptr, ptr %4, align 8, !tbaa !27
  %22 = getelementptr inbounds nuw %struct.SnowContext, ptr %21, i32 0, i32 6
  call void @ff_dwt_init(ptr noundef %22)
  %23 = load ptr, ptr %4, align 8, !tbaa !27
  %24 = getelementptr inbounds nuw %struct.SnowContext, ptr %23, i32 0, i32 5
  call void @ff_h264qpel_init(ptr noundef %24, i32 noundef 8)
  %25 = load ptr, ptr %4, align 8, !tbaa !27
  %26 = getelementptr inbounds nuw %struct.SnowContext, ptr %25, i32 0, i32 3
  %27 = getelementptr inbounds nuw %struct.HpelDSPContext, ptr %26, i32 0, i32 2
  %28 = getelementptr inbounds [4 x [4 x ptr]], ptr %27, i64 0, i64 0
  %29 = getelementptr inbounds [4 x ptr], ptr %28, i64 0, i64 0
  store ptr @mc_block_hpel0016, ptr %29, align 8, !tbaa !83
  %30 = load ptr, ptr %4, align 8, !tbaa !27
  %31 = getelementptr inbounds nuw %struct.SnowContext, ptr %30, i32 0, i32 3
  %32 = getelementptr inbounds nuw %struct.HpelDSPContext, ptr %31, i32 0, i32 0
  %33 = getelementptr inbounds [4 x [4 x ptr]], ptr %32, i64 0, i64 0
  %34 = getelementptr inbounds [4 x ptr], ptr %33, i64 0, i64 0
  store ptr @mc_block_hpel0016, ptr %34, align 8, !tbaa !83
  %35 = load ptr, ptr %4, align 8, !tbaa !27
  %36 = getelementptr inbounds nuw %struct.SnowContext, ptr %35, i32 0, i32 3
  %37 = getelementptr inbounds nuw %struct.HpelDSPContext, ptr %36, i32 0, i32 2
  %38 = getelementptr inbounds [4 x [4 x ptr]], ptr %37, i64 0, i64 1
  %39 = getelementptr inbounds [4 x ptr], ptr %38, i64 0, i64 0
  store ptr @mc_block_hpel008, ptr %39, align 8, !tbaa !83
  %40 = load ptr, ptr %4, align 8, !tbaa !27
  %41 = getelementptr inbounds nuw %struct.SnowContext, ptr %40, i32 0, i32 3
  %42 = getelementptr inbounds nuw %struct.HpelDSPContext, ptr %41, i32 0, i32 0
  %43 = getelementptr inbounds [4 x [4 x ptr]], ptr %42, i64 0, i64 1
  %44 = getelementptr inbounds [4 x ptr], ptr %43, i64 0, i64 0
  store ptr @mc_block_hpel008, ptr %44, align 8, !tbaa !83
  %45 = load ptr, ptr %4, align 8, !tbaa !27
  %46 = getelementptr inbounds nuw %struct.SnowContext, ptr %45, i32 0, i32 3
  %47 = getelementptr inbounds nuw %struct.HpelDSPContext, ptr %46, i32 0, i32 2
  %48 = getelementptr inbounds [4 x [4 x ptr]], ptr %47, i64 0, i64 0
  %49 = getelementptr inbounds [4 x ptr], ptr %48, i64 0, i64 1
  store ptr @mc_block_hpel8016, ptr %49, align 8, !tbaa !83
  %50 = load ptr, ptr %4, align 8, !tbaa !27
  %51 = getelementptr inbounds nuw %struct.SnowContext, ptr %50, i32 0, i32 3
  %52 = getelementptr inbounds nuw %struct.HpelDSPContext, ptr %51, i32 0, i32 0
  %53 = getelementptr inbounds [4 x [4 x ptr]], ptr %52, i64 0, i64 0
  %54 = getelementptr inbounds [4 x ptr], ptr %53, i64 0, i64 1
  store ptr @mc_block_hpel8016, ptr %54, align 8, !tbaa !83
  %55 = load ptr, ptr %4, align 8, !tbaa !27
  %56 = getelementptr inbounds nuw %struct.SnowContext, ptr %55, i32 0, i32 3
  %57 = getelementptr inbounds nuw %struct.HpelDSPContext, ptr %56, i32 0, i32 2
  %58 = getelementptr inbounds [4 x [4 x ptr]], ptr %57, i64 0, i64 1
  %59 = getelementptr inbounds [4 x ptr], ptr %58, i64 0, i64 1
  store ptr @mc_block_hpel808, ptr %59, align 8, !tbaa !83
  %60 = load ptr, ptr %4, align 8, !tbaa !27
  %61 = getelementptr inbounds nuw %struct.SnowContext, ptr %60, i32 0, i32 3
  %62 = getelementptr inbounds nuw %struct.HpelDSPContext, ptr %61, i32 0, i32 0
  %63 = getelementptr inbounds [4 x [4 x ptr]], ptr %62, i64 0, i64 1
  %64 = getelementptr inbounds [4 x ptr], ptr %63, i64 0, i64 1
  store ptr @mc_block_hpel808, ptr %64, align 8, !tbaa !83
  %65 = load ptr, ptr %4, align 8, !tbaa !27
  %66 = getelementptr inbounds nuw %struct.SnowContext, ptr %65, i32 0, i32 3
  %67 = getelementptr inbounds nuw %struct.HpelDSPContext, ptr %66, i32 0, i32 2
  %68 = getelementptr inbounds [4 x [4 x ptr]], ptr %67, i64 0, i64 0
  %69 = getelementptr inbounds [4 x ptr], ptr %68, i64 0, i64 2
  store ptr @mc_block_hpel0816, ptr %69, align 8, !tbaa !83
  %70 = load ptr, ptr %4, align 8, !tbaa !27
  %71 = getelementptr inbounds nuw %struct.SnowContext, ptr %70, i32 0, i32 3
  %72 = getelementptr inbounds nuw %struct.HpelDSPContext, ptr %71, i32 0, i32 0
  %73 = getelementptr inbounds [4 x [4 x ptr]], ptr %72, i64 0, i64 0
  %74 = getelementptr inbounds [4 x ptr], ptr %73, i64 0, i64 2
  store ptr @mc_block_hpel0816, ptr %74, align 8, !tbaa !83
  %75 = load ptr, ptr %4, align 8, !tbaa !27
  %76 = getelementptr inbounds nuw %struct.SnowContext, ptr %75, i32 0, i32 3
  %77 = getelementptr inbounds nuw %struct.HpelDSPContext, ptr %76, i32 0, i32 2
  %78 = getelementptr inbounds [4 x [4 x ptr]], ptr %77, i64 0, i64 1
  %79 = getelementptr inbounds [4 x ptr], ptr %78, i64 0, i64 2
  store ptr @mc_block_hpel088, ptr %79, align 8, !tbaa !83
  %80 = load ptr, ptr %4, align 8, !tbaa !27
  %81 = getelementptr inbounds nuw %struct.SnowContext, ptr %80, i32 0, i32 3
  %82 = getelementptr inbounds nuw %struct.HpelDSPContext, ptr %81, i32 0, i32 0
  %83 = getelementptr inbounds [4 x [4 x ptr]], ptr %82, i64 0, i64 1
  %84 = getelementptr inbounds [4 x ptr], ptr %83, i64 0, i64 2
  store ptr @mc_block_hpel088, ptr %84, align 8, !tbaa !83
  %85 = load ptr, ptr %4, align 8, !tbaa !27
  %86 = getelementptr inbounds nuw %struct.SnowContext, ptr %85, i32 0, i32 3
  %87 = getelementptr inbounds nuw %struct.HpelDSPContext, ptr %86, i32 0, i32 2
  %88 = getelementptr inbounds [4 x [4 x ptr]], ptr %87, i64 0, i64 0
  %89 = getelementptr inbounds [4 x ptr], ptr %88, i64 0, i64 3
  store ptr @mc_block_hpel8816, ptr %89, align 8, !tbaa !83
  %90 = load ptr, ptr %4, align 8, !tbaa !27
  %91 = getelementptr inbounds nuw %struct.SnowContext, ptr %90, i32 0, i32 3
  %92 = getelementptr inbounds nuw %struct.HpelDSPContext, ptr %91, i32 0, i32 0
  %93 = getelementptr inbounds [4 x [4 x ptr]], ptr %92, i64 0, i64 0
  %94 = getelementptr inbounds [4 x ptr], ptr %93, i64 0, i64 3
  store ptr @mc_block_hpel8816, ptr %94, align 8, !tbaa !83
  %95 = load ptr, ptr %4, align 8, !tbaa !27
  %96 = getelementptr inbounds nuw %struct.SnowContext, ptr %95, i32 0, i32 3
  %97 = getelementptr inbounds nuw %struct.HpelDSPContext, ptr %96, i32 0, i32 2
  %98 = getelementptr inbounds [4 x [4 x ptr]], ptr %97, i64 0, i64 1
  %99 = getelementptr inbounds [4 x ptr], ptr %98, i64 0, i64 3
  store ptr @mc_block_hpel888, ptr %99, align 8, !tbaa !83
  %100 = load ptr, ptr %4, align 8, !tbaa !27
  %101 = getelementptr inbounds nuw %struct.SnowContext, ptr %100, i32 0, i32 3
  %102 = getelementptr inbounds nuw %struct.HpelDSPContext, ptr %101, i32 0, i32 0
  %103 = getelementptr inbounds [4 x [4 x ptr]], ptr %102, i64 0, i64 1
  %104 = getelementptr inbounds [4 x ptr], ptr %103, i64 0, i64 3
  store ptr @mc_block_hpel888, ptr %104, align 8, !tbaa !83
  %105 = load ptr, ptr %4, align 8, !tbaa !27
  %106 = getelementptr inbounds nuw %struct.SnowContext, ptr %105, i32 0, i32 1
  %107 = load ptr, ptr %106, align 8, !tbaa !32
  %108 = getelementptr inbounds nuw %struct.AVCodecContext, ptr %107, i32 0, i32 18
  %109 = load i32, ptr %108, align 8, !tbaa !45
  store i32 %109, ptr %5, align 4, !tbaa !9
  %110 = load ptr, ptr %4, align 8, !tbaa !27
  %111 = getelementptr inbounds nuw %struct.SnowContext, ptr %110, i32 0, i32 1
  %112 = load ptr, ptr %111, align 8, !tbaa !32
  %113 = getelementptr inbounds nuw %struct.AVCodecContext, ptr %112, i32 0, i32 19
  %114 = load i32, ptr %113, align 4, !tbaa !59
  store i32 %114, ptr %6, align 4, !tbaa !9
  %115 = load i32, ptr %5, align 4, !tbaa !9
  %116 = load i32, ptr %6, align 4, !tbaa !9
  %117 = mul nsw i32 %115, %116
  %118 = sext i32 %117 to i64
  %119 = call noalias ptr @av_calloc(i64 noundef %118, i64 noundef 2)
  %120 = load ptr, ptr %4, align 8, !tbaa !27
  %121 = getelementptr inbounds nuw %struct.SnowContext, ptr %120, i32 0, i32 28
  store ptr %119, ptr %121, align 8, !tbaa !102
  %122 = icmp ne ptr %119, null
  br i1 %122, label %123, label %160

123:                                              ; preds = %1
  %124 = load i32, ptr %5, align 4, !tbaa !9
  %125 = load i32, ptr %6, align 4, !tbaa !9
  %126 = mul nsw i32 %124, %125
  %127 = sext i32 %126 to i64
  %128 = call noalias ptr @av_calloc(i64 noundef %127, i64 noundef 4)
  %129 = load ptr, ptr %4, align 8, !tbaa !27
  %130 = getelementptr inbounds nuw %struct.SnowContext, ptr %129, i32 0, i32 26
  store ptr %128, ptr %130, align 8, !tbaa !103
  %131 = icmp ne ptr %128, null
  br i1 %131, label %132, label %160

132:                                              ; preds = %123
  %133 = load i32, ptr %5, align 4, !tbaa !9
  %134 = sext i32 %133 to i64
  %135 = call noalias ptr @av_calloc(i64 noundef %134, i64 noundef 4)
  %136 = load ptr, ptr %4, align 8, !tbaa !27
  %137 = getelementptr inbounds nuw %struct.SnowContext, ptr %136, i32 0, i32 27
  store ptr %135, ptr %137, align 8, !tbaa !104
  %138 = icmp ne ptr %135, null
  br i1 %138, label %139, label %160

139:                                              ; preds = %132
  %140 = load i32, ptr %5, align 4, !tbaa !9
  %141 = sext i32 %140 to i64
  %142 = call noalias ptr @av_calloc(i64 noundef %141, i64 noundef 2)
  %143 = load ptr, ptr %4, align 8, !tbaa !27
  %144 = getelementptr inbounds nuw %struct.SnowContext, ptr %143, i32 0, i32 29
  store ptr %142, ptr %144, align 8, !tbaa !105
  %145 = icmp ne ptr %142, null
  br i1 %145, label %146, label %160

146:                                              ; preds = %139
  %147 = load i32, ptr %5, align 4, !tbaa !9
  %148 = add nsw i32 %147, 1
  %149 = ashr i32 %148, 1
  %150 = load i32, ptr %6, align 4, !tbaa !9
  %151 = add nsw i32 %150, 1
  %152 = ashr i32 %151, 1
  %153 = mul nsw i32 %149, %152
  %154 = add nsw i32 %153, 1
  %155 = sext i32 %154 to i64
  %156 = call noalias ptr @av_calloc(i64 noundef %155, i64 noundef 4)
  %157 = load ptr, ptr %4, align 8, !tbaa !27
  %158 = getelementptr inbounds nuw %struct.SnowContext, ptr %157, i32 0, i32 30
  store ptr %156, ptr %158, align 8, !tbaa !106
  %159 = icmp ne ptr %156, null
  br i1 %159, label %161, label %160

160:                                              ; preds = %146, %139, %132, %123, %1
  store i32 -12, ptr %2, align 4
  store i32 1, ptr %8, align 4
  br label %203

161:                                              ; preds = %146
  store i32 0, ptr %7, align 4, !tbaa !9
  br label %162

162:                                              ; preds = %181, %161
  %163 = load i32, ptr %7, align 4, !tbaa !9
  %164 = icmp slt i32 %163, 8
  br i1 %164, label %165, label %184

165:                                              ; preds = %162
  %166 = call ptr @av_frame_alloc()
  %167 = load ptr, ptr %4, align 8, !tbaa !27
  %168 = getelementptr inbounds nuw %struct.SnowContext, ptr %167, i32 0, i32 9
  %169 = load i32, ptr %7, align 4, !tbaa !9
  %170 = sext i32 %169 to i64
  %171 = getelementptr inbounds [8 x ptr], ptr %168, i64 0, i64 %170
  store ptr %166, ptr %171, align 8, !tbaa !75
  %172 = load ptr, ptr %4, align 8, !tbaa !27
  %173 = getelementptr inbounds nuw %struct.SnowContext, ptr %172, i32 0, i32 9
  %174 = load i32, ptr %7, align 4, !tbaa !9
  %175 = sext i32 %174 to i64
  %176 = getelementptr inbounds [8 x ptr], ptr %173, i64 0, i64 %175
  %177 = load ptr, ptr %176, align 8, !tbaa !75
  %178 = icmp ne ptr %177, null
  br i1 %178, label %180, label %179

179:                                              ; preds = %165
  store i32 -12, ptr %2, align 4
  store i32 1, ptr %8, align 4
  br label %203

180:                                              ; preds = %165
  br label %181

181:                                              ; preds = %180
  %182 = load i32, ptr %7, align 4, !tbaa !9
  %183 = add nsw i32 %182, 1
  store i32 %183, ptr %7, align 4, !tbaa !9
  br label %162, !llvm.loop !107

184:                                              ; preds = %162
  %185 = call ptr @av_frame_alloc()
  %186 = load ptr, ptr %4, align 8, !tbaa !27
  %187 = getelementptr inbounds nuw %struct.SnowContext, ptr %186, i32 0, i32 10
  store ptr %185, ptr %187, align 8, !tbaa !108
  %188 = call ptr @av_frame_alloc()
  %189 = load ptr, ptr %4, align 8, !tbaa !27
  %190 = getelementptr inbounds nuw %struct.SnowContext, ptr %189, i32 0, i32 8
  store ptr %188, ptr %190, align 8, !tbaa !109
  %191 = load ptr, ptr %4, align 8, !tbaa !27
  %192 = getelementptr inbounds nuw %struct.SnowContext, ptr %191, i32 0, i32 10
  %193 = load ptr, ptr %192, align 8, !tbaa !108
  %194 = icmp ne ptr %193, null
  br i1 %194, label %195, label %200

195:                                              ; preds = %184
  %196 = load ptr, ptr %4, align 8, !tbaa !27
  %197 = getelementptr inbounds nuw %struct.SnowContext, ptr %196, i32 0, i32 8
  %198 = load ptr, ptr %197, align 8, !tbaa !109
  %199 = icmp ne ptr %198, null
  br i1 %199, label %201, label %200

200:                                              ; preds = %195, %184
  store i32 -12, ptr %2, align 4
  store i32 1, ptr %8, align 4
  br label %203

201:                                              ; preds = %195
  %202 = call i32 @pthread_once(ptr noundef @ff_snow_common_init.init_static_once, ptr noundef @snow_static_init)
  store i32 0, ptr %2, align 4
  store i32 1, ptr %8, align 4
  br label %203

203:                                              ; preds = %201, %200, %179, %160
  call void @llvm.lifetime.end.p0(i64 4, ptr %7) #6
  call void @llvm.lifetime.end.p0(i64 4, ptr %6) #6
  call void @llvm.lifetime.end.p0(i64 4, ptr %5) #6
  call void @llvm.lifetime.end.p0(i64 8, ptr %4) #6
  %204 = load i32, ptr %2, align 4
  ret i32 %204
}