; Function Attrs: cold nounwind optsize uwtable
define range(i32 -12, 1) i32 @ff_snow_common_init(ptr noundef %0) local_unnamed_addr #6 {
  %2 = getelementptr inbounds nuw i8, ptr %0, i64 32
  %3 = load ptr, ptr %2, align 8, !tbaa !87
  %4 = getelementptr inbounds nuw i8, ptr %3, i64 8
  store ptr %0, ptr %4, align 8, !tbaa !25
  %5 = getelementptr inbounds nuw i8, ptr %3, i64 6436
  store i32 1, ptr %5, align 4, !tbaa !88
  %6 = getelementptr inbounds nuw i8, ptr %3, i64 6424
  store i32 1, ptr %6, align 8, !tbaa !89
  %7 = getelementptr inbounds nuw i8, ptr %3, i64 992
  tail call void @ff_videodsp_init(ptr noundef nonnull %7, i32 noundef 8) #10
  %8 = getelementptr inbounds nuw i8, ptr %3, i64 2032
  tail call void @ff_dwt_init(ptr noundef nonnull %8) #10
  %9 = getelementptr inbounds nuw i8, ptr %3, i64 1008
  tail call void @ff_h264qpel_init(ptr noundef nonnull %9, i32 noundef 8) #10
  %10 = getelementptr inbounds nuw i8, ptr %3, i64 576
  %11 = getelementptr inbounds nuw i8, ptr %3, i64 832
  store ptr @mc_block_hpel0016, ptr %11, align 8, !tbaa !74
  store ptr @mc_block_hpel0016, ptr %10, align 8, !tbaa !74
  %12 = getelementptr inbounds nuw i8, ptr %3, i64 864
  store ptr @mc_block_hpel008, ptr %12, align 8, !tbaa !74
  %13 = getelementptr inbounds nuw i8, ptr %3, i64 608
  store ptr @mc_block_hpel008, ptr %13, align 8, !tbaa !74
  %14 = getelementptr inbounds nuw i8, ptr %3, i64 840
  store ptr @mc_block_hpel8016, ptr %14, align 8, !tbaa !74
  %15 = getelementptr inbounds nuw i8, ptr %3, i64 584
  store ptr @mc_block_hpel8016, ptr %15, align 8, !tbaa !74
  %16 = getelementptr inbounds nuw i8, ptr %3, i64 872
  store ptr @mc_block_hpel808, ptr %16, align 8, !tbaa !74
  %17 = getelementptr inbounds nuw i8, ptr %3, i64 616
  store ptr @mc_block_hpel808, ptr %17, align 8, !tbaa !74
  %18 = getelementptr inbounds nuw i8, ptr %3, i64 848
  store ptr @mc_block_hpel0816, ptr %18, align 8, !tbaa !74
  %19 = getelementptr inbounds nuw i8, ptr %3, i64 592
  store ptr @mc_block_hpel0816, ptr %19, align 8, !tbaa !74
  %20 = getelementptr inbounds nuw i8, ptr %3, i64 880
  store ptr @mc_block_hpel088, ptr %20, align 8, !tbaa !74
  %21 = getelementptr inbounds nuw i8, ptr %3, i64 624
  store ptr @mc_block_hpel088, ptr %21, align 8, !tbaa !74
  %22 = getelementptr inbounds nuw i8, ptr %3, i64 856
  store ptr @mc_block_hpel8816, ptr %22, align 8, !tbaa !74
  %23 = getelementptr inbounds nuw i8, ptr %3, i64 600
  store ptr @mc_block_hpel8816, ptr %23, align 8, !tbaa !74
  %24 = getelementptr inbounds nuw i8, ptr %3, i64 888
  store ptr @mc_block_hpel888, ptr %24, align 8, !tbaa !74
  %25 = getelementptr inbounds nuw i8, ptr %3, i64 632
  store ptr @mc_block_hpel888, ptr %25, align 8, !tbaa !74
  %26 = load ptr, ptr %4, align 8, !tbaa !25
  %27 = getelementptr inbounds nuw i8, ptr %26, i64 112
  %28 = load i32, ptr %27, align 8, !tbaa !38
  %29 = getelementptr inbounds nuw i8, ptr %26, i64 116
  %30 = load i32, ptr %29, align 4, !tbaa !52
  %31 = mul nsw i32 %30, %28
  %32 = sext i32 %31 to i64
  %33 = tail call noalias ptr @av_calloc(i64 noundef %32, i64 noundef 2) #10
  %34 = getelementptr inbounds nuw i8, ptr %3, i64 6592
  store ptr %33, ptr %34, align 8, !tbaa !90
  %.not = icmp eq ptr %33, null
  br i1 %.not, label %.loopexit, label %35

35:                                               ; preds = %1
  %36 = tail call noalias ptr @av_calloc(i64 noundef %32, i64 noundef 4) #10
  %37 = getelementptr inbounds nuw i8, ptr %3, i64 6576
  store ptr %36, ptr %37, align 8, !tbaa !91
  %.not50 = icmp eq ptr %36, null
  br i1 %.not50, label %.loopexit, label %38

38:                                               ; preds = %35
  %39 = sext i32 %28 to i64
  %40 = tail call noalias ptr @av_calloc(i64 noundef %39, i64 noundef 4) #10
  %41 = getelementptr inbounds nuw i8, ptr %3, i64 6584
  store ptr %40, ptr %41, align 8, !tbaa !92
  %.not51 = icmp eq ptr %40, null
  br i1 %.not51, label %.loopexit, label %42

42:                                               ; preds = %38
  %43 = tail call noalias ptr @av_calloc(i64 noundef %39, i64 noundef 2) #10
  %44 = getelementptr inbounds nuw i8, ptr %3, i64 6600
  store ptr %43, ptr %44, align 8, !tbaa !93
  %.not52 = icmp eq ptr %43, null
  br i1 %.not52, label %.loopexit, label %45

45:                                               ; preds = %42
  %46 = add nsw i32 %28, 1
  %47 = ashr i32 %46, 1
  %48 = add nsw i32 %30, 1
  %49 = ashr i32 %48, 1
  %50 = mul nsw i32 %49, %47
  %51 = add nsw i32 %50, 1
  %52 = sext i32 %51 to i64
  %53 = tail call noalias ptr @av_calloc(i64 noundef %52, i64 noundef 4) #10
  %54 = getelementptr inbounds nuw i8, ptr %3, i64 6608
  store ptr %53, ptr %54, align 8, !tbaa !94
  %.not53 = icmp eq ptr %53, null
  br i1 %.not53, label %.loopexit, label %.preheader

.preheader:                                       ; preds = %45
  %55 = getelementptr inbounds nuw i8, ptr %3, i64 2072
  br label %57

56:                                               ; preds = %57
  %indvars.iv.next = add nuw nsw i64 %indvars.iv, 1
  %exitcond.not = icmp eq i64 %indvars.iv.next, 8
  br i1 %exitcond.not, label %60, label %57, !llvm.loop !95

57:                                               ; preds = %.preheader, %56
  %indvars.iv = phi i64 [ 0, %.preheader ], [ %indvars.iv.next, %56 ]
  %58 = tail call ptr @av_frame_alloc() #10
  %59 = getelementptr inbounds nuw [8 x ptr], ptr %55, i64 0, i64 %indvars.iv
  store ptr %58, ptr %59, align 8, !tbaa !66
  %.not56 = icmp eq ptr %58, null
  br i1 %.not56, label %.loopexit, label %56

60:                                               ; preds = %56
  %61 = tail call ptr @av_frame_alloc() #10
  %62 = getelementptr inbounds nuw i8, ptr %3, i64 2136
  store ptr %61, ptr %62, align 8, !tbaa !96
  %63 = tail call ptr @av_frame_alloc() #10
  %64 = getelementptr inbounds nuw i8, ptr %3, i64 2064
  store ptr %63, ptr %64, align 8, !tbaa !97
  %65 = load ptr, ptr %62, align 8, !tbaa !96
  %.not54 = icmp eq ptr %65, null
  %.not55 = icmp eq ptr %63, null
  %or.cond = select i1 %.not54, i1 true, i1 %.not55
  br i1 %or.cond, label %.loopexit, label %66

66:                                               ; preds = %60
  %67 = tail call i32 @pthread_once(ptr noundef nonnull @ff_snow_common_init.init_static_once, ptr noundef nonnull @snow_static_init) #10
  br label %.loopexit

.loopexit:                                        ; preds = %57, %60, %1, %35, %38, %42, %45, %66
  %.049 = phi i32 [ 0, %66 ], [ -12, %45 ], [ -12, %42 ], [ -12, %38 ], [ -12, %35 ], [ -12, %1 ], [ -12, %60 ], [ -12, %57 ]
  ret i32 %.049
}